target datalayout = "e-m:e-p270:32:32-p271:32:32-p272:64:64-i64:64-i128:128-f80:128-n8:16:32:64-S128"
target triple = "x86_64-pc-linux-gnu"

%struct.RangeCoder = type { i32, i32, i32 }

; Function Attrs: nounwind uwtable
define internal i32 @get_freq(ptr noundef %0, i32 noundef %1, ptr noundef %2) #1 {
  %4 = alloca i32, align 4
  %5 = alloca ptr, align 8
  %6 = alloca i32, align 4
  %7 = alloca ptr, align 8
  store ptr %0, ptr %5, align 8, !tbaa !80
  store i32 %1, ptr %6, align 4, !tbaa !57
  store ptr %2, ptr %7, align 8, !tbaa !52
  %8 = load i32, ptr %6, align 4, !tbaa !57
  %9 = icmp eq i32 %8, 0
  br i1 %9, label %10, label %11

10:                                               ; preds = %3
  store i32 -1094995529, ptr %4, align 4
  br label %33

11:                                               ; preds = %3
  %12 = load ptr, ptr %5, align 8, !tbaa !80
  %13 = getelementptr inbounds nuw %struct.RangeCoder, ptr %12, i32 0, i32 1
  %14 = load i32, ptr %13, align 4, !tbaa !82
  %15 = load i32, ptr %6, align 4, !tbaa !57
  %16 = udiv i32 %14, %15
  %17 = load ptr, ptr %5, align 8, !tbaa !80
  %18 = getelementptr inbounds nuw %struct.RangeCoder, ptr %17, i32 0, i32 1
  store i32 %16, ptr %18, align 4, !tbaa !82
  %19 = load ptr, ptr %5, align 8, !tbaa !80
  %20 = getelementptr inbounds nuw %struct.RangeCoder, ptr %19, i32 0, i32 1
  %21 = load i32, ptr %20, align 4, !tbaa !82
  %22 = icmp eq i32 %21, 0
  br i1 %22, label %23, label %24

23:                                               ; preds = %11
  store i32 -1094995529, ptr %4, align 4
  br label %33

24:                                               ; preds = %11
  %25 = load ptr, ptr %5, align 8, !tbaa !80
  %26 = getelementptr inbounds nuw %struct.RangeCoder, ptr %25, i32 0, i32 0
  %27 = load i32, ptr %26, align 4, !tbaa !83
  %28 = load ptr, ptr %5, align 8, !tbaa !80
  %29 = getelementptr inbounds nuw %struct.RangeCoder, ptr %28, i32 0, i32 1
  %30 = load i32, ptr %29, align 4, !tbaa !82
  %31 = udiv i32 %27, %30
  %32 = load ptr, ptr %7, align 8, !tbaa !52
  store i32 %31, ptr %32, align 4, !tbaa !57
  store i32 0, ptr %4, align 4
  br label %33

33:                                               ; preds = %24, %23, %10
  %34 = load i32, ptr %4, align 4
  ret i32 %34
}