; Function Attrs: mustprogress nofree norecurse nosync nounwind willreturn memory(argmem: readwrite) uwtable
define internal range(i32 -1094995529, 1) i32 @get_freq(ptr noundef captures(none) %0, i32 noundef %1, ptr noundef writeonly captures(none) %2) #4 {
  %4 = icmp eq i32 %1, 0
  br i1 %4, label %13, label %5

5:                                                ; preds = %3
  %6 = getelementptr inbounds nuw i8, ptr %0, i64 4
  %7 = load i32, ptr %6, align 4, !tbaa !80
  %8 = udiv i32 %7, %1
  store i32 %8, ptr %6, align 4, !tbaa !80
  %9 = icmp ugt i32 %1, %7
  br i1 %9, label %13, label %10

10:                                               ; preds = %5
  %11 = load i32, ptr %0, align 4, !tbaa !62
  %12 = udiv i32 %11, %8
  store i32 %12, ptr %2, align 4, !tbaa !61
  br label %13

13:                                               ; preds = %5, %3, %10
  %.0 = phi i32 [ 0, %10 ], [ -1094995529, %3 ], [ -1094995529, %5 ]
  ret i32 %.0
}